target datalayout = "e-m:e-p270:32:32-p271:32:32-p272:64:64-i64:64-i128:128-f80:128-n8:16:32:64-S128"
target triple = "x86_64-pc-linux-gnu"

%struct.ident_t = type { i32, i32, i32, i32, ptr }
%"class.ncnn::Mat" = type { ptr, ptr, i64, i32, ptr, i32, i32, i32, i32, i32, i64 }

@1 = private unnamed_addr constant %struct.ident_t { i32 0, i32 514, i32 0, i32 22, ptr @0 }, align 8

; Function Attrs: noinline noreturn nounwind uwtable
define linkonce_odr hidden void @__clang_call_terminate(ptr noundef %0) #10 comdat {
  %2 = call ptr @__cxa_begin_catch(ptr %0) #9
  call void @_ZSt9terminatev() #15
  unreachable
}

; Function Attrs: mustprogress nounwind uwtable
define linkonce_odr hidden noundef nofpclass(nan inf) float @_ZNK4ncnn12unary_op_cosclERKf(ptr noundef nonnull align 1 dereferenceable(1) %0, ptr noundef nonnull align 4 dereferenceable(4) %1) #4 comdat align 2 {
  %3 = alloca ptr, align 8
  %4 = alloca ptr, align 8
  store ptr %0, ptr %3, align 8, !tbaa !73
  store ptr %1, ptr %4, align 8, !tbaa !49
  %5 = load ptr, ptr %4, align 8, !tbaa !49
  %6 = load float, ptr %5, align 4, !tbaa !47
  %7 = call fast float @llvm.cos.f32(float %6)
  ret float %7
}

; Function Attrs: alwaysinline mustprogress nounwind uwtable
define linkonce_odr hidden noundef nonnull align 4 dereferenceable(4) ptr @_ZN4ncnn3MatixEm(ptr noundef nonnull align 8 dereferenceable(72) %0, i64 noundef %1) #7 comdat align 2 {
  %3 = alloca ptr, align 8
  %4 = alloca i64, align 8
  store ptr %0, ptr %3, align 8, !tbaa !30
  store i64 %1, ptr %4, align 8, !tbaa !51
  %5 = load ptr, ptr %3, align 8
  %6 = getelementptr inbounds nuw %"class.ncnn::Mat", ptr %5, i32 0, i32 0
  %7 = load ptr, ptr %6, align 8, !tbaa !52
  %8 = load i64, ptr %4, align 8, !tbaa !51
  %9 = getelementptr inbounds nuw float, ptr %7, i64 %8
  ret ptr %9
}

; Function Attrs: alwaysinline norecurse nounwind uwtable
define internal void @_ZN4ncnnL16unary_op_inplaceINS_12unary_op_cosEEEiRNS_3MatERKNS_6OptionE.omp_outlined(ptr noalias noundef %0, ptr noalias noundef %1, ptr noundef nonnull align 4 dereferenceable(4) %2, ptr noundef nonnull align 8 dereferenceable(72) %3, ptr noundef nonnull align 1 dereferenceable(1) %4) #8 personality ptr @__gxx_personality_v0 {
  %6 = alloca ptr, align 8
  %7 = alloca ptr, align 8
  %8 = alloca ptr, align 8
  %9 = alloca ptr, align 8
  %10 = alloca ptr, align 8
  %11 = alloca ptr, align 8
  %12 = alloca i32, align 4
  %13 = alloca i32, align 4
  %14 = alloca i32, align 4
  %15 = alloca i32, align 4
  %16 = alloca i32, align 4
  %17 = alloca i32, align 4
  %18 = alloca i32, align 4
  %19 = alloca i32, align 4
  %20 = alloca i32, align 4
  store ptr %0, ptr %6, align 8, !tbaa !44
  store ptr %1, ptr %7, align 8, !tbaa !44
  store ptr %2, ptr %8, align 8, !tbaa !44
  store ptr %3, ptr %9, align 8, !tbaa !30
  store ptr %4, ptr %10, align 8, !tbaa !73
  %21 = load ptr, ptr %8, align 8, !tbaa !44
  %22 = load ptr, ptr %9, align 8, !tbaa !30
  %23 = load ptr, ptr %10, align 8, !tbaa !73
  store ptr %22, ptr %11, align 8
  call void @llvm.lifetime.start.p0(i64 4, ptr %12) #9
  call void @llvm.lifetime.start.p0(i64 4, ptr %13) #9
  %24 = load i32, ptr %21, align 4, !tbaa !33
  store i32 %24, ptr %13, align 4, !tbaa !33
  call void @llvm.lifetime.start.p0(i64 4, ptr %14) #9
  %25 = load i32, ptr %13, align 4, !tbaa !33
  %26 = sub nsw i32 %25, 0
  %27 = sdiv i32 %26, 1
  %28 = sub nsw i32 %27, 1
  store i32 %28, ptr %14, align 4, !tbaa !33
  call void @llvm.lifetime.start.p0(i64 4, ptr %15) #9
  store i32 0, ptr %15, align 4, !tbaa !33
  call void @llvm.lifetime.end.p0(i64 4, ptr %15) #9
  %29 = load i32, ptr %13, align 4, !tbaa !33
  %30 = icmp slt i32 0, %29
  br i1 %30, label %31, label %72

31:                                               ; preds = %5
  call void @llvm.lifetime.start.p0(i64 4, ptr %16) #9
  store i32 0, ptr %16, align 4, !tbaa !33
  call void @llvm.lifetime.start.p0(i64 4, ptr %17) #9
  %32 = load i32, ptr %14, align 4, !tbaa !33
  store i32 %32, ptr %17, align 4, !tbaa !33
  call void @llvm.lifetime.start.p0(i64 4, ptr %18) #9
  store i32 1, ptr %18, align 4, !tbaa !33
  call void @llvm.lifetime.start.p0(i64 4, ptr %19) #9
  store i32 0, ptr %19, align 4, !tbaa !33
  call void @llvm.lifetime.start.p0(i64 4, ptr %20) #9
  %33 = load ptr, ptr %6, align 8
  %34 = load i32, ptr %33, align 4, !tbaa !33
  call void @__kmpc_for_static_init_4(ptr @1, i32 %34, i32 34, ptr %19, ptr %16, ptr %17, ptr %18, i32 1, i32 1)
  %35 = load i32, ptr %17, align 4, !tbaa !33
  %36 = load i32, ptr %14, align 4, !tbaa !33
  %37 = icmp sgt i32 %35, %36
  br i1 %37, label %38, label %40

38:                                               ; preds = %31
  %39 = load i32, ptr %14, align 4, !tbaa !33
  br label %42

40:                                               ; preds = %31
  %41 = load i32, ptr %17, align 4, !tbaa !33
  br label %42

42:                                               ; preds = %40, %38
  %43 = phi i32 [ %39, %38 ], [ %41, %40 ]
  store i32 %43, ptr %17, align 4, !tbaa !33
  %44 = load i32, ptr %16, align 4, !tbaa !33
  store i32 %44, ptr %12, align 4, !tbaa !33
  br label %45

45:                                               ; preds = %65, %42
  %46 = load i32, ptr %12, align 4, !tbaa !33
  %47 = load i32, ptr %17, align 4, !tbaa !33
  %48 = icmp sle i32 %46, %47
  br i1 %48, label %50, label %49

49:                                               ; preds = %45
  br label %68

50:                                               ; preds = %45
  %51 = load i32, ptr %12, align 4, !tbaa !33
  %52 = mul nsw i32 %51, 1
  %53 = add nsw i32 0, %52
  store i32 %53, ptr %20, align 4, !tbaa !33
  %54 = load ptr, ptr %11, align 8, !tbaa !30
  %55 = load i32, ptr %20, align 4, !tbaa !33
  %56 = sext i32 %55 to i64
  %57 = call noundef nonnull align 4 dereferenceable(4) ptr @_ZN4ncnn3MatixEm(ptr noundef nonnull align 8 dereferenceable(72) %54, i64 noundef %56)
  %58 = invoke noundef nofpclass(nan inf) float @_ZNK4ncnn12unary_op_cosclERKf(ptr noundef nonnull align 1 dereferenceable(1) %23, ptr noundef nonnull align 4 dereferenceable(4) %57)
          to label %59 unwind label %73

59:                                               ; preds = %50
  %60 = load ptr, ptr %11, align 8, !tbaa !30
  %61 = load i32, ptr %20, align 4, !tbaa !33
  %62 = sext i32 %61 to i64
  %63 = call noundef nonnull align 4 dereferenceable(4) ptr @_ZN4ncnn3MatixEm(ptr noundef nonnull align 8 dereferenceable(72) %60, i64 noundef %62)
  store float %58, ptr %63, align 4, !tbaa !47
  br label %64

64:                                               ; preds = %59
  br label %65

65:                                               ; preds = %64
  %66 = load i32, ptr %12, align 4, !tbaa !33
  %67 = add nsw i32 %66, 1
  store i32 %67, ptr %12, align 4, !tbaa !33
  br label %45

68:                                               ; preds = %49
  br label %69

69:                                               ; preds = %68
  %70 = load ptr, ptr %6, align 8
  %71 = load i32, ptr %70, align 4, !tbaa !33
  call void @__kmpc_for_static_fini(ptr @1, i32 %71)
  call void @llvm.lifetime.end.p0(i64 4, ptr %20) #9
  call void @llvm.lifetime.end.p0(i64 4, ptr %19) #9
  call void @llvm.lifetime.end.p0(i64 4, ptr %18) #9
  call void @llvm.lifetime.end.p0(i64 4, ptr %17) #9
  call void @llvm.lifetime.end.p0(i64 4, ptr %16) #9
  br label %72

72:                                               ; preds = %69, %5
  call void @llvm.lifetime.end.p0(i64 4, ptr %14) #9
  call void @llvm.lifetime.end.p0(i64 4, ptr %13) #9
  call void @llvm.lifetime.end.p0(i64 4, ptr %12) #9
  ret void

73:                                               ; preds = %50
  %74 = landingpad { ptr, i32 }
          catch ptr null
  %75 = extractvalue { ptr, i32 } %74, 0
  call void @__clang_call_terminate(ptr %75) #15
  unreachable
}