; Function Attrs: alwaysinline norecurse nounwind uwtable
define internal void @_ZN4ncnnL16unary_op_inplaceINS_12unary_op_cosEEEiRNS_3MatERKNS_6OptionE.omp_outlined(ptr noalias noundef readonly captures(none) %0, ptr noalias readnone captures(none) %1, ptr noundef nonnull readonly align 4 captures(none) dereferenceable(4) %2, ptr noundef nonnull readonly align 8 captures(none) dereferenceable(72) %3, ptr nonnull readnone align 1 captures(none) %4) #7 personality ptr @__gxx_personality_v0 {
  %6 = alloca i32, align 4
  %7 = alloca i32, align 4
  %8 = alloca i32, align 4
  %9 = alloca i32, align 4
  %10 = load i32, ptr %2, align 4, !tbaa !30
  %11 = icmp sgt i32 %10, 0
  br i1 %11, label %12, label %25

12:                                               ; preds = %5
  %13 = add nsw i32 %10, -1
  call void @llvm.lifetime.start.p0(i64 4, ptr nonnull %6) #8
  store i32 0, ptr %6, align 4, !tbaa !30
  call void @llvm.lifetime.start.p0(i64 4, ptr nonnull %7) #8
  store i32 %13, ptr %7, align 4, !tbaa !30
  call void @llvm.lifetime.start.p0(i64 4, ptr nonnull %8) #8
  store i32 1, ptr %8, align 4, !tbaa !30
  call void @llvm.lifetime.start.p0(i64 4, ptr nonnull %9) #8
  store i32 0, ptr %9, align 4, !tbaa !30
  %14 = load i32, ptr %0, align 4, !tbaa !30
  call void @__kmpc_for_static_init_4(ptr nonnull @1, i32 %14, i32 34, ptr nonnull %9, ptr nonnull %6, ptr nonnull %7, ptr nonnull %8, i32 1, i32 1)
  %15 = load i32, ptr %7, align 4, !tbaa !30
  %16 = call i32 @llvm.smin.i32(i32 %15, i32 %13)
  store i32 %16, ptr %7, align 4, !tbaa !30
  %17 = load i32, ptr %6, align 4, !tbaa !30
  %.not16 = icmp sgt i32 %17, %16
  br i1 %.not16, label %._crit_edge, label %.lr.ph

.lr.ph:                                           ; preds = %12
  %18 = load ptr, ptr %3, align 8, !tbaa !37
  %19 = sext i32 %17 to i64
  %20 = add nsw i32 %16, 1
  br label %21

21:                                               ; preds = %.lr.ph, %21
  %indvars.iv = phi i64 [ %19, %.lr.ph ], [ %indvars.iv.next, %21 ]
  %22 = getelementptr inbounds nuw float, ptr %18, i64 %indvars.iv
  %23 = load float, ptr %22, align 4, !tbaa !38
  %24 = call fast noundef float @llvm.cos.f32(float %23)
  store float %24, ptr %22, align 4, !tbaa !38
  %indvars.iv.next = add nsw i64 %indvars.iv, 1
  %lftr.wideiv = trunc i64 %indvars.iv.next to i32
  %exitcond.not = icmp eq i32 %20, %lftr.wideiv
  br i1 %exitcond.not, label %._crit_edge, label %21

._crit_edge:                                      ; preds = %21, %12
  call void @__kmpc_for_static_fini(ptr nonnull @1, i32 %14)
  call void @llvm.lifetime.end.p0(i64 4, ptr nonnull %9) #8
  call void @llvm.lifetime.end.p0(i64 4, ptr nonnull %8) #8
  call void @llvm.lifetime.end.p0(i64 4, ptr nonnull %7) #8
  call void @llvm.lifetime.end.p0(i64 4, ptr nonnull %6) #8
  br label %25

25:                                               ; preds = %._crit_edge, %5
  ret void
}